target datalayout = "e-m:e-p270:32:32-p271:32:32-p272:64:64-i64:64-i128:128-f80:128-n8:16:32:64-S128"
target triple = "x86_64-pc-linux-gnu"

%"class.Json::Value" = type { %"union.Json::Value::ValueHolder", i16, ptr, i64 }
%"union.Json::Value::ValueHolder" = type { i64 }

; Function Attrs: mustprogress nounwind uwtable
define internal noundef zeroext i1 @_ZN4JsonL10IsIntegralEd(double noundef %0) #0 {
  %2 = alloca double, align 8
  %3 = alloca double, align 8
  store double %0, ptr %2, align 8
  %4 = load double, ptr %2, align 8
  %5 = call double @modf(double noundef %4, ptr noundef %3) #10
  %6 = fcmp oeq double %5, 0.000000e+00
  ret i1 %6
}

; Function Attrs: mustprogress uwtable
define dso_local noundef zeroext i1 @_ZNK4Json5Value8isUInt64Ev(ptr noundef nonnull align 8 dereferenceable(32) %0) #1 align 2 {
  %2 = alloca i1, align 1
  %3 = alloca ptr, align 8
  store ptr %0, ptr %3, align 8
  %4 = load ptr, ptr %3, align 8
  %5 = getelementptr inbounds %"class.Json::Value", ptr %4, i32 0, i32 1
  %6 = load i16, ptr %5, align 8
  %7 = and i16 %6, 255
  %8 = zext i16 %7 to i32
  switch i32 %8, label %28 [
    i32 1, label %9
    i32 2, label %13
    i32 3, label %14
  ]

9:                                                ; preds = %1
  %10 = getelementptr inbounds %"class.Json::Value", ptr %4, i32 0, i32 0
  %11 = load i64, ptr %10, align 8
  %12 = icmp sge i64 %11, 0
  store i1 %12, ptr %2, align 1
  br label %30

13:                                               ; preds = %1
  store i1 true, ptr %2, align 1
  br label %30

14:                                               ; preds = %1
  %15 = getelementptr inbounds %"class.Json::Value", ptr %4, i32 0, i32 0
  %16 = load double, ptr %15, align 8
  %17 = fcmp oge double %16, 0.000000e+00
  br i1 %17, label %18, label %26

18:                                               ; preds = %14
  %19 = getelementptr inbounds %"class.Json::Value", ptr %4, i32 0, i32 0
  %20 = load double, ptr %19, align 8
  %21 = fcmp olt double %20, 0x43F0000000000000
  br i1 %21, label %22, label %26

22:                                               ; preds = %18
  %23 = getelementptr inbounds %"class.Json::Value", ptr %4, i32 0, i32 0
  %24 = load double, ptr %23, align 8
  %25 = call noundef zeroext i1 @_ZN4JsonL10IsIntegralEd(double noundef %24)
  br label %26

26:                                               ; preds = %22, %18, %14
  %27 = phi i1 [ false, %18 ], [ false, %14 ], [ %25, %22 ]
  store i1 %27, ptr %2, align 1
  br label %30

28:                                               ; preds = %1
  br label %29

29:                                               ; preds = %28
  store i1 false, ptr %2, align 1
  br label %30

30:                                               ; preds = %29, %26, %13, %9
  %31 = load i1, ptr %2, align 1
  ret i1 %31
}