; Function Attrs: mustprogress nofree nounwind willreturn memory(argmem: read) uwtable
define dso_local noundef zeroext i1 @_ZNK4Json5Value8isUInt64Ev(ptr nocapture noundef nonnull readonly align 8 dereferenceable(32) %0) local_unnamed_addr #25 align 2 {
  %2 = alloca double, align 8
  %3 = getelementptr inbounds i8, ptr %0, i64 8
  %4 = load i16, ptr %3, align 8
  %trunc = trunc i16 %4 to i8
  switch i8 %trunc, label %15 [
    i8 1, label %5
    i8 2, label %16
    i8 3, label %8
  ]

5:                                                ; preds = %1
  %6 = load i64, ptr %0, align 8
  %7 = icmp sgt i64 %6, -1
  br label %16

8:                                                ; preds = %1
  %9 = load double, ptr %0, align 8
  %10 = fcmp oge double %9, 0.000000e+00
  %11 = fcmp olt double %9, 0x43F0000000000000
  %or.cond = and i1 %10, %11
  br i1 %or.cond, label %12, label %16

12:                                               ; preds = %8
  call void @llvm.lifetime.start.p0(i64 8, ptr nonnull %2)
  %13 = call double @modf(double noundef %9, ptr noundef nonnull %2) #39
  %14 = fcmp oeq double %13, 0.000000e+00
  call void @llvm.lifetime.end.p0(i64 8, ptr nonnull %2)
  br label %16

15:                                               ; preds = %1
  br label %16

16:                                               ; preds = %8, %12, %1, %15, %5
  %.0 = phi i1 [ false, %15 ], [ %7, %5 ], [ true, %1 ], [ false, %8 ], [ %14, %12 ]
  ret i1 %.0
}